; Function Attrs: nounwind uwtable
define hidden i32 @drsuapi_dissect_struct_DsBindInfo32(ptr noundef %0, i32 noundef %1, ptr noundef %2, ptr noundef %3, ptr noundef %4, ptr noundef %5, i32 noundef %6, i32 %7) local_unnamed_addr #0 {
  %9 = getelementptr inbounds nuw i8, ptr %4, i64 28
  %10 = load i32, ptr %9, align 4
  %.not = icmp ne i32 %10, 0
  %11 = and i32 %1, 3
  %.not50 = icmp eq i32 %11, 0
  %or.cond = or i1 %.not50, %.not
  %12 = and i32 %1, -4
  %13 = add i32 %12, 4
  %.0 = select i1 %or.cond, i32 %1, i32 %13
  %.not51 = icmp eq ptr %3, null
  br i1 %.not51, label %18, label %14

14:                                               ; preds = %8
  %15 = tail call ptr @proto_tree_add_item(ptr noundef nonnull %3, i32 noundef %6, ptr noundef %0, i32 noundef %.0, i32 noundef -1, i32 noundef 0) #5
  %16 = load i32, ptr @ett_drsuapi_drsuapi_DsBindInfo32, align 4
  %17 = tail call ptr @proto_item_add_subtree(ptr noundef %15, i32 noundef %16) #5
  br label %18

18:                                               ; preds = %14, %8
  %.048 = phi ptr [ %15, %14 ], [ null, %8 ]
  %.047 = phi ptr [ %17, %14 ], [ null, %8 ]
  %19 = load i32, ptr @hf_drsuapi_drsuapi_DsBindInfo32_supported_extensions, align 4
  %20 = tail call i32 @drsuapi_dissect_bitmap_SupportedExtensions(ptr noundef %0, i32 noundef %.0, ptr noundef %2, ptr noundef %.047, ptr noundef nonnull %4, ptr noundef %5, i32 noundef %19, i32 poison)
  %21 = load i32, ptr @hf_drsuapi_drsuapi_DsBindInfo32_site_guid, align 4
  %22 = tail call i32 @dissect_ndr_uuid_t(ptr noundef %0, i32 noundef %20, ptr noundef %2, ptr noundef %.047, ptr noundef nonnull %4, ptr noundef %5, i32 noundef %21, ptr noundef null) #5
  %23 = load i32, ptr @hf_drsuapi_drsuapi_DsBindInfo32_pid, align 4
  %24 = tail call i32 @PIDL_dissect_uint32(ptr noundef %0, i32 noundef %22, ptr noundef %2, ptr noundef %.047, ptr noundef nonnull %4, ptr noundef %5, i32 noundef %23, i32 noundef 0) #5
  %25 = load i32, ptr @hf_drsuapi_drsuapi_DsBindInfo32_repl_epoch, align 4
  %26 = tail call i32 @PIDL_dissect_uint32(ptr noundef %0, i32 noundef %24, ptr noundef %2, ptr noundef %.047, ptr noundef nonnull %4, ptr noundef %5, i32 noundef %25, i32 noundef 0) #5
  %27 = load i32, ptr @hf_drsuapi_drsuapi_DsBindInfo32_supported_extensions_ext, align 4
  %28 = tail call i32 @drsuapi_dissect_bitmap_SupportedExtensionsExt(ptr noundef %0, i32 noundef %26, ptr noundef %2, ptr noundef %.047, ptr noundef nonnull %4, ptr noundef %5, i32 noundef %27, i32 poison)
  %29 = sub i32 %28, %.0
  tail call void @proto_item_set_len(ptr noundef %.048, i32 noundef %29) #5
  %30 = getelementptr inbounds nuw i8, ptr %4, i64 72
  %31 = load ptr, ptr %30, align 8
  %32 = getelementptr inbounds nuw i8, ptr %31, i64 96
  %33 = load i32, ptr %32, align 8
  %34 = and i32 %33, 1
  %.not52 = icmp eq i32 %34, 0
  br i1 %.not52, label %41, label %35

35:                                               ; preds = %18
  %36 = load i32, ptr %9, align 4
  %.not53 = icmp ne i32 %36, 0
  %37 = and i32 %28, 3
  %.not54 = icmp eq i32 %37, 0
  %or.cond55 = or i1 %.not54, %.not53
  br i1 %or.cond55, label %41, label %38

38:                                               ; preds = %35
  %39 = and i32 %28, -4
  %40 = add i32 %39, 4
  br label %41

41:                                               ; preds = %35, %38, %18
  %.1 = phi i32 [ %28, %35 ], [ %40, %38 ], [ %28, %18 ]
  ret i32 %.1
}